target datalayout = "e-m:e-p270:32:32-p271:32:32-p272:64:64-i64:64-i128:128-f80:128-n8:16:32:64-S128"
target triple = "x86_64-pc-linux-gnu"

; Function Attrs: mustprogress nounwind uwtable
define internal void @_ZN4llvm4jsonL10encodeUtf8EjRNSt7__cxx1112basic_stringIcSt11char_traitsIcESaIcEEE(i32 noundef %0, ptr noundef nonnull align 8 dereferenceable(32) %1) #0 {
  %3 = alloca i32, align 4
  %4 = alloca ptr, align 8
  %5 = alloca i8, align 1
  %6 = alloca i8, align 1
  %7 = alloca i8, align 1
  %8 = alloca i8, align 1
  %9 = alloca i8, align 1
  %10 = alloca i8, align 1
  %11 = alloca i8, align 1
  %12 = alloca i8, align 1
  %13 = alloca i8, align 1
  store i32 %0, ptr %3, align 4
  store ptr %1, ptr %4, align 8
  %14 = load i32, ptr %3, align 4
  %15 = icmp ult i32 %14, 128
  br i1 %15, label %16, label %21

16:                                               ; preds = %2
  %17 = load ptr, ptr %4, align 8
  %18 = load i32, ptr %3, align 4
  %19 = and i32 %18, 127
  %20 = trunc i32 %19 to i8
  call void @_ZNSt7__cxx1112basic_stringIcSt11char_traitsIcESaIcEE9push_backEc(ptr noundef nonnull align 8 dereferenceable(32) %17, i8 noundef signext %20)
  br label %97

21:                                               ; preds = %2
  %22 = load i32, ptr %3, align 4
  %23 = icmp ult i32 %22, 2048
  br i1 %23, label %24, label %38

24:                                               ; preds = %21
  %25 = load i32, ptr %3, align 4
  %26 = and i32 %25, 1984
  %27 = lshr i32 %26, 6
  %28 = or i32 192, %27
  %29 = trunc i32 %28 to i8
  store i8 %29, ptr %5, align 1
  %30 = load i32, ptr %3, align 4
  %31 = and i32 %30, 63
  %32 = or i32 128, %31
  %33 = trunc i32 %32 to i8
  store i8 %33, ptr %6, align 1
  %34 = load ptr, ptr %4, align 8
  %35 = load i8, ptr %5, align 1
  call void @_ZNSt7__cxx1112basic_stringIcSt11char_traitsIcESaIcEE9push_backEc(ptr noundef nonnull align 8 dereferenceable(32) %34, i8 noundef signext %35)
  %36 = load ptr, ptr %4, align 8
  %37 = load i8, ptr %6, align 1
  call void @_ZNSt7__cxx1112basic_stringIcSt11char_traitsIcESaIcEE9push_backEc(ptr noundef nonnull align 8 dereferenceable(32) %36, i8 noundef signext %37)
  br label %96

38:                                               ; preds = %21
  %39 = load i32, ptr %3, align 4
  %40 = icmp ult i32 %39, 65536
  br i1 %40, label %41, label %62

41:                                               ; preds = %38
  %42 = load i32, ptr %3, align 4
  %43 = and i32 %42, 61440
  %44 = lshr i32 %43, 12
  %45 = or i32 224, %44
  %46 = trunc i32 %45 to i8
  store i8 %46, ptr %7, align 1
  %47 = load i32, ptr %3, align 4
  %48 = and i32 %47, 4032
  %49 = lshr i32 %48, 6
  %50 = or i32 128, %49
  %51 = trunc i32 %50 to i8
  store i8 %51, ptr %8, align 1
  %52 = load i32, ptr %3, align 4
  %53 = and i32 %52, 63
  %54 = or i32 128, %53
  %55 = trunc i32 %54 to i8
  store i8 %55, ptr %9, align 1
  %56 = load ptr, ptr %4, align 8
  %57 = load i8, ptr %7, align 1
  call void @_ZNSt7__cxx1112basic_stringIcSt11char_traitsIcESaIcEE9push_backEc(ptr noundef nonnull align 8 dereferenceable(32) %56, i8 noundef signext %57)
  %58 = load ptr, ptr %4, align 8
  %59 = load i8, ptr %8, align 1
  call void @_ZNSt7__cxx1112basic_stringIcSt11char_traitsIcESaIcEE9push_backEc(ptr noundef nonnull align 8 dereferenceable(32) %58, i8 noundef signext %59)
  %60 = load ptr, ptr %4, align 8
  %61 = load i8, ptr %9, align 1
  call void @_ZNSt7__cxx1112basic_stringIcSt11char_traitsIcESaIcEE9push_backEc(ptr noundef nonnull align 8 dereferenceable(32) %60, i8 noundef signext %61)
  br label %95

62:                                               ; preds = %38
  %63 = load i32, ptr %3, align 4
  %64 = icmp ult i32 %63, 1114112
  br i1 %64, label %65, label %93

65:                                               ; preds = %62
  %66 = load i32, ptr %3, align 4
  %67 = and i32 %66, 2031616
  %68 = lshr i32 %67, 18
  %69 = or i32 240, %68
  %70 = trunc i32 %69 to i8
  store i8 %70, ptr %10, align 1
  %71 = load i32, ptr %3, align 4
  %72 = and i32 %71, 258048
  %73 = lshr i32 %72, 12
  %74 = or i32 128, %73
  %75 = trunc i32 %74 to i8
  store i8 %75, ptr %11, align 1
  %76 = load i32, ptr %3, align 4
  %77 = and i32 %76, 4032
  %78 = lshr i32 %77, 6
  %79 = or i32 128, %78
  %80 = trunc i32 %79 to i8
  store i8 %80, ptr %12, align 1
  %81 = load i32, ptr %3, align 4
  %82 = and i32 %81, 63
  %83 = or i32 128, %82
  %84 = trunc i32 %83 to i8
  store i8 %84, ptr %13, align 1
  %85 = load ptr, ptr %4, align 8
  %86 = load i8, ptr %10, align 1
  call void @_ZNSt7__cxx1112basic_stringIcSt11char_traitsIcESaIcEE9push_backEc(ptr noundef nonnull align 8 dereferenceable(32) %85, i8 noundef signext %86)
  %87 = load ptr, ptr %4, align 8
  %88 = load i8, ptr %11, align 1
  call void @_ZNSt7__cxx1112basic_stringIcSt11char_traitsIcESaIcEE9push_backEc(ptr noundef nonnull align 8 dereferenceable(32) %87, i8 noundef signext %88)
  %89 = load ptr, ptr %4, align 8
  %90 = load i8, ptr %12, align 1
  call void @_ZNSt7__cxx1112basic_stringIcSt11char_traitsIcESaIcEE9push_backEc(ptr noundef nonnull align 8 dereferenceable(32) %89, i8 noundef signext %90)
  %91 = load ptr, ptr %4, align 8
  %92 = load i8, ptr %13, align 1
  call void @_ZNSt7__cxx1112basic_stringIcSt11char_traitsIcESaIcEE9push_backEc(ptr noundef nonnull align 8 dereferenceable(32) %91, i8 noundef signext %92)
  br label %94

93:                                               ; preds = %62
  unreachable

94:                                               ; preds = %65
  br label %95

95:                                               ; preds = %94, %41
  br label %96

96:                                               ; preds = %95, %24
  br label %97

97:                                               ; preds = %96, %16
  ret void
}