; Function Attrs: mustprogress nounwind uwtable
define internal fastcc void @_ZN4llvm4jsonL10encodeUtf8EjRNSt7__cxx1112basic_stringIcSt11char_traitsIcESaIcEEE(i32 noundef %0, ptr noundef nonnull align 8 dereferenceable(32) %1) unnamed_addr #0 {
  %3 = icmp ult i32 %0, 128
  br i1 %3, label %4, label %6

4:                                                ; preds = %2
  %5 = trunc nuw nsw i32 %0 to i8
  br label %44

6:                                                ; preds = %2
  %7 = icmp ult i32 %0, 2048
  br i1 %7, label %8, label %15

8:                                                ; preds = %6
  %9 = lshr i32 %0, 6
  %10 = trunc nuw i32 %9 to i8
  %11 = or disjoint i8 %10, -64
  %12 = trunc i32 %0 to i8
  %13 = and i8 %12, 63
  %14 = or disjoint i8 %13, -128
  tail call void @_ZNSt7__cxx1112basic_stringIcSt11char_traitsIcESaIcEE9push_backEc(ptr noundef nonnull align 8 dereferenceable(32) %1, i8 noundef signext %11) #24
  br label %44

15:                                               ; preds = %6
  %16 = icmp ult i32 %0, 65536
  br i1 %16, label %17, label %28

17:                                               ; preds = %15
  %18 = lshr i32 %0, 12
  %19 = trunc nuw i32 %18 to i8
  %20 = or disjoint i8 %19, -32
  %21 = lshr i32 %0, 6
  %22 = trunc i32 %21 to i8
  %23 = and i8 %22, 63
  %24 = or disjoint i8 %23, -128
  %25 = trunc i32 %0 to i8
  %26 = and i8 %25, 63
  %27 = or disjoint i8 %26, -128
  tail call void @_ZNSt7__cxx1112basic_stringIcSt11char_traitsIcESaIcEE9push_backEc(ptr noundef nonnull align 8 dereferenceable(32) %1, i8 noundef signext %20) #24
  tail call void @_ZNSt7__cxx1112basic_stringIcSt11char_traitsIcESaIcEE9push_backEc(ptr noundef nonnull align 8 dereferenceable(32) %1, i8 noundef signext %24) #24
  br label %44

28:                                               ; preds = %15
  %29 = icmp ult i32 %0, 1114112
  tail call void @llvm.assume(i1 %29)
  %30 = lshr i32 %0, 18
  %31 = trunc nuw nsw i32 %30 to i8
  %32 = or disjoint i8 %31, -16
  %33 = lshr i32 %0, 12
  %34 = trunc i32 %33 to i8
  %35 = and i8 %34, 63
  %36 = or disjoint i8 %35, -128
  %37 = lshr i32 %0, 6
  %38 = trunc i32 %37 to i8
  %39 = and i8 %38, 63
  %40 = or disjoint i8 %39, -128
  %41 = trunc i32 %0 to i8
  %42 = and i8 %41, 63
  %43 = or disjoint i8 %42, -128
  tail call void @_ZNSt7__cxx1112basic_stringIcSt11char_traitsIcESaIcEE9push_backEc(ptr noundef nonnull align 8 dereferenceable(32) %1, i8 noundef signext %32) #24
  tail call void @_ZNSt7__cxx1112basic_stringIcSt11char_traitsIcESaIcEE9push_backEc(ptr noundef nonnull align 8 dereferenceable(32) %1, i8 noundef signext %36) #24
  tail call void @_ZNSt7__cxx1112basic_stringIcSt11char_traitsIcESaIcEE9push_backEc(ptr noundef nonnull align 8 dereferenceable(32) %1, i8 noundef signext %40) #24
  br label %44

44:                                               ; preds = %8, %28, %17, %4
  %.sink = phi i8 [ %14, %8 ], [ %43, %28 ], [ %27, %17 ], [ %5, %4 ]
  tail call void @_ZNSt7__cxx1112basic_stringIcSt11char_traitsIcESaIcEE9push_backEc(ptr noundef nonnull align 8 dereferenceable(32) %1, i8 noundef signext %.sink) #24
  ret void
}